target datalayout = "e-m:e-p270:32:32-p271:32:32-p272:64:64-i64:64-i128:128-f80:128-n8:16:32:64-S128"
target triple = "x86_64-pc-linux-gnu"

%struct.dsa_st = type { i32, i32, %struct.ffc_params_st, ptr, ptr, i32, ptr, %struct.CRYPTO_REF_COUNT, %struct.crypto_ex_data_st, ptr, ptr, ptr, ptr, i64 }
%struct.ffc_params_st = type { ptr, ptr, ptr, ptr, ptr, i64, i32, i32, i32, i32, i32, ptr, ptr, i32 }
%struct.CRYPTO_REF_COUNT = type { i32 }
%struct.crypto_ex_data_st = type { ptr, ptr }
%struct.dsa_method = type { ptr, ptr, ptr, ptr, ptr, ptr, ptr, ptr, i32, ptr, ptr, ptr }

@.str = private unnamed_addr constant [32 x i8] c"../openssl/crypto/dsa/dsa_lib.c\00", align 1
@__func__.dsa_new_intern = private unnamed_addr constant [15 x i8] c"dsa_new_intern\00", align 1

; Function Attrs: inlinehint nounwind uwtable
define internal i32 @CRYPTO_NEW_REF(ptr noundef %0, i32 noundef %1) #3 {
  %3 = alloca ptr, align 8
  %4 = alloca i32, align 4
  store ptr %0, ptr %3, align 8, !tbaa !10
  store i32 %1, ptr %4, align 4, !tbaa !8
  %5 = load i32, ptr %4, align 4, !tbaa !8
  %6 = load ptr, ptr %3, align 8, !tbaa !10
  %7 = getelementptr inbounds nuw %struct.CRYPTO_REF_COUNT, ptr %6, i32 0, i32 0
  store atomic i32 %5, ptr %7 seq_cst, align 4, !tbaa !52
  ret i32 1
}

; Function Attrs: nounwind uwtable
define internal ptr @dsa_new_intern(ptr noundef %0, ptr noundef %1) #0 {
  %3 = alloca ptr, align 8
  %4 = alloca ptr, align 8
  %5 = alloca ptr, align 8
  %6 = alloca ptr, align 8
  %7 = alloca i32, align 4
  store ptr %0, ptr %4, align 8, !tbaa !35
  store ptr %1, ptr %5, align 8, !tbaa !36
  call void @llvm.lifetime.start.p0(i64 8, ptr %6) #4
  %8 = call noalias ptr @CRYPTO_zalloc(i64 noundef 200, ptr noundef @.str, i32 noundef 135)
  store ptr %8, ptr %6, align 8, !tbaa !3
  %9 = load ptr, ptr %6, align 8, !tbaa !3
  %10 = icmp eq ptr %9, null
  br i1 %10, label %11, label %12

11:                                               ; preds = %2
  store ptr null, ptr %3, align 8
  store i32 1, ptr %7, align 4
  br label %119

12:                                               ; preds = %2
  %13 = call ptr @CRYPTO_THREAD_lock_new()
  %14 = load ptr, ptr %6, align 8, !tbaa !3
  %15 = getelementptr inbounds nuw %struct.dsa_st, ptr %14, i32 0, i32 11
  store ptr %13, ptr %15, align 8, !tbaa !37
  %16 = load ptr, ptr %6, align 8, !tbaa !3
  %17 = getelementptr inbounds nuw %struct.dsa_st, ptr %16, i32 0, i32 11
  %18 = load ptr, ptr %17, align 8, !tbaa !37
  %19 = icmp eq ptr %18, null
  br i1 %19, label %20, label %22

20:                                               ; preds = %12
  call void @ERR_new()
  call void @ERR_set_debug(ptr noundef @.str, i32 noundef 142, ptr noundef @__func__.dsa_new_intern)
  call void (i32, i32, ptr, ...) @ERR_set_error(i32 noundef 10, i32 noundef 524303, ptr noundef null)
  %21 = load ptr, ptr %6, align 8, !tbaa !3
  call void @CRYPTO_free(ptr noundef %21, ptr noundef @.str, i32 noundef 143)
  store ptr null, ptr %3, align 8
  store i32 1, ptr %7, align 4
  br label %119

22:                                               ; preds = %12
  %23 = load ptr, ptr %6, align 8, !tbaa !3
  %24 = getelementptr inbounds nuw %struct.dsa_st, ptr %23, i32 0, i32 7
  %25 = call i32 @CRYPTO_NEW_REF(ptr noundef %24, i32 noundef 1)
  %26 = icmp ne i32 %25, 0
  br i1 %26, label %32, label %27

27:                                               ; preds = %22
  %28 = load ptr, ptr %6, align 8, !tbaa !3
  %29 = getelementptr inbounds nuw %struct.dsa_st, ptr %28, i32 0, i32 11
  %30 = load ptr, ptr %29, align 8, !tbaa !37
  call void @CRYPTO_THREAD_lock_free(ptr noundef %30)
  %31 = load ptr, ptr %6, align 8, !tbaa !3
  call void @CRYPTO_free(ptr noundef %31, ptr noundef @.str, i32 noundef 149)
  store ptr null, ptr %3, align 8
  store i32 1, ptr %7, align 4
  br label %119

32:                                               ; preds = %22
  %33 = load ptr, ptr %5, align 8, !tbaa !36
  %34 = load ptr, ptr %6, align 8, !tbaa !3
  %35 = getelementptr inbounds nuw %struct.dsa_st, ptr %34, i32 0, i32 12
  store ptr %33, ptr %35, align 8, !tbaa !38
  %36 = call ptr @DSA_get_default_method()
  %37 = load ptr, ptr %6, align 8, !tbaa !3
  %38 = getelementptr inbounds nuw %struct.dsa_st, ptr %37, i32 0, i32 9
  store ptr %36, ptr %38, align 8, !tbaa !31
  %39 = load ptr, ptr %6, align 8, !tbaa !3
  %40 = getelementptr inbounds nuw %struct.dsa_st, ptr %39, i32 0, i32 9
  %41 = load ptr, ptr %40, align 8, !tbaa !31
  %42 = getelementptr inbounds nuw %struct.dsa_method, ptr %41, i32 0, i32 8
  %43 = load i32, ptr %42, align 8, !tbaa !39
  %44 = and i32 %43, -1025
  %45 = load ptr, ptr %6, align 8, !tbaa !3
  %46 = getelementptr inbounds nuw %struct.dsa_st, ptr %45, i32 0, i32 5
  store i32 %44, ptr %46, align 8, !tbaa !28
  %47 = load ptr, ptr %4, align 8, !tbaa !35
  %48 = icmp ne ptr %47, null
  br i1 %48, label %49, label %58

49:                                               ; preds = %32
  %50 = load ptr, ptr %4, align 8, !tbaa !35
  %51 = call i32 @ENGINE_init(ptr noundef %50)
  %52 = icmp ne i32 %51, 0
  br i1 %52, label %54, label %53

53:                                               ; preds = %49
  call void @ERR_new()
  call void @ERR_set_debug(ptr noundef @.str, i32 noundef 159, ptr noundef @__func__.dsa_new_intern)
  call void (i32, i32, ptr, ...) @ERR_set_error(i32 noundef 10, i32 noundef 524326, ptr noundef null)
  br label %117

54:                                               ; preds = %49
  %55 = load ptr, ptr %4, align 8, !tbaa !35
  %56 = load ptr, ptr %6, align 8, !tbaa !3
  %57 = getelementptr inbounds nuw %struct.dsa_st, ptr %56, i32 0, i32 10
  store ptr %55, ptr %57, align 8, !tbaa !29
  br label %62

58:                                               ; preds = %32
  %59 = call ptr @ENGINE_get_default_DSA()
  %60 = load ptr, ptr %6, align 8, !tbaa !3
  %61 = getelementptr inbounds nuw %struct.dsa_st, ptr %60, i32 0, i32 10
  store ptr %59, ptr %61, align 8, !tbaa !29
  br label %62

62:                                               ; preds = %58, %54
  %63 = load ptr, ptr %6, align 8, !tbaa !3
  %64 = getelementptr inbounds nuw %struct.dsa_st, ptr %63, i32 0, i32 10
  %65 = load ptr, ptr %64, align 8, !tbaa !29
  %66 = icmp ne ptr %65, null
  br i1 %66, label %67, label %80

67:                                               ; preds = %62
  %68 = load ptr, ptr %6, align 8, !tbaa !3
  %69 = getelementptr inbounds nuw %struct.dsa_st, ptr %68, i32 0, i32 10
  %70 = load ptr, ptr %69, align 8, !tbaa !29
  %71 = call ptr @ENGINE_get_DSA(ptr noundef %70)
  %72 = load ptr, ptr %6, align 8, !tbaa !3
  %73 = getelementptr inbounds nuw %struct.dsa_st, ptr %72, i32 0, i32 9
  store ptr %71, ptr %73, align 8, !tbaa !31
  %74 = load ptr, ptr %6, align 8, !tbaa !3
  %75 = getelementptr inbounds nuw %struct.dsa_st, ptr %74, i32 0, i32 9
  %76 = load ptr, ptr %75, align 8, !tbaa !31
  %77 = icmp eq ptr %76, null
  br i1 %77, label %78, label %79

78:                                               ; preds = %67
  call void @ERR_new()
  call void @ERR_set_debug(ptr noundef @.str, i32 noundef 168, ptr noundef @__func__.dsa_new_intern)
  call void (i32, i32, ptr, ...) @ERR_set_error(i32 noundef 10, i32 noundef 524326, ptr noundef null)
  br label %117

79:                                               ; preds = %67
  br label %80

80:                                               ; preds = %79, %62
  %81 = load ptr, ptr %6, align 8, !tbaa !3
  %82 = getelementptr inbounds nuw %struct.dsa_st, ptr %81, i32 0, i32 9
  %83 = load ptr, ptr %82, align 8, !tbaa !31
  %84 = getelementptr inbounds nuw %struct.dsa_method, ptr %83, i32 0, i32 8
  %85 = load i32, ptr %84, align 8, !tbaa !39
  %86 = and i32 %85, -1025
  %87 = load ptr, ptr %6, align 8, !tbaa !3
  %88 = getelementptr inbounds nuw %struct.dsa_st, ptr %87, i32 0, i32 5
  store i32 %86, ptr %88, align 8, !tbaa !28
  %89 = load ptr, ptr %5, align 8, !tbaa !36
  %90 = load ptr, ptr %6, align 8, !tbaa !3
  %91 = load ptr, ptr %6, align 8, !tbaa !3
  %92 = getelementptr inbounds nuw %struct.dsa_st, ptr %91, i32 0, i32 8
  %93 = call i32 @ossl_crypto_new_ex_data_ex(ptr noundef %89, i32 noundef 7, ptr noundef %90, ptr noundef %92)
  %94 = icmp ne i32 %93, 0
  br i1 %94, label %96, label %95

95:                                               ; preds = %80
  br label %117

96:                                               ; preds = %80
  %97 = load ptr, ptr %6, align 8, !tbaa !3
  %98 = getelementptr inbounds nuw %struct.dsa_st, ptr %97, i32 0, i32 2
  call void @ossl_ffc_params_init(ptr noundef %98)
  %99 = load ptr, ptr %6, align 8, !tbaa !3
  %100 = getelementptr inbounds nuw %struct.dsa_st, ptr %99, i32 0, i32 9
  %101 = load ptr, ptr %100, align 8, !tbaa !31
  %102 = getelementptr inbounds nuw %struct.dsa_method, ptr %101, i32 0, i32 6
  %103 = load ptr, ptr %102, align 8, !tbaa !34
  %104 = icmp ne ptr %103, null
  br i1 %104, label %105, label %115

105:                                              ; preds = %96
  %106 = load ptr, ptr %6, align 8, !tbaa !3
  %107 = getelementptr inbounds nuw %struct.dsa_st, ptr %106, i32 0, i32 9
  %108 = load ptr, ptr %107, align 8, !tbaa !31
  %109 = getelementptr inbounds nuw %struct.dsa_method, ptr %108, i32 0, i32 6
  %110 = load ptr, ptr %109, align 8, !tbaa !34
  %111 = load ptr, ptr %6, align 8, !tbaa !3
  %112 = call i32 %110(ptr noundef %111)
  %113 = icmp ne i32 %112, 0
  br i1 %113, label %115, label %114

114:                                              ; preds = %105
  call void @ERR_new()
  call void @ERR_set_debug(ptr noundef @.str, i32 noundef 185, ptr noundef @__func__.dsa_new_intern)
  call void (i32, i32, ptr, ...) @ERR_set_error(i32 noundef 10, i32 noundef 786693, ptr noundef null)
  br label %117

115:                                              ; preds = %105, %96
  %116 = load ptr, ptr %6, align 8, !tbaa !3
  store ptr %116, ptr %3, align 8
  store i32 1, ptr %7, align 4
  br label %119

117:                                              ; preds = %114, %95, %78, %53
  %118 = load ptr, ptr %6, align 8, !tbaa !3
  call void @DSA_free(ptr noundef %118)
  store ptr null, ptr %3, align 8
  store i32 1, ptr %7, align 4
  br label %119

119:                                              ; preds = %117, %115, %27, %20, %11
  call void @llvm.lifetime.end.p0(i64 8, ptr %6) #4
  %120 = load ptr, ptr %3, align 8
  ret ptr %120
}