; Function Attrs: nounwind uwtable
define internal fastcc ptr @dsa_new_intern(ptr noundef %0, ptr noundef %1) unnamed_addr #0 {
  %3 = tail call noalias ptr @CRYPTO_zalloc(i64 noundef 200, ptr noundef nonnull @.str, i32 noundef 135) #7
  %4 = icmp eq ptr %3, null
  br i1 %4, label %44, label %5

5:                                                ; preds = %2
  %6 = tail call ptr @CRYPTO_THREAD_lock_new() #7
  %7 = getelementptr inbounds nuw i8, ptr %3, i64 176
  store ptr %6, ptr %7, align 8, !tbaa !27
  %8 = icmp eq ptr %6, null
  br i1 %8, label %9, label %10

9:                                                ; preds = %5
  tail call void @ERR_new() #7
  tail call void @ERR_set_debug(ptr noundef nonnull @.str, i32 noundef 142, ptr noundef nonnull @__func__.dsa_new_intern) #7
  tail call void (i32, i32, ptr, ...) @ERR_set_error(i32 noundef 10, i32 noundef 524303, ptr noundef null) #7
  tail call void @CRYPTO_free(ptr noundef nonnull %3, ptr noundef nonnull @.str, i32 noundef 143) #7
  br label %44

10:                                               ; preds = %5
  %11 = getelementptr inbounds nuw i8, ptr %3, i64 136
  store atomic i32 1, ptr %11 seq_cst, align 4, !tbaa !28
  %12 = getelementptr inbounds nuw i8, ptr %3, i64 184
  store ptr %1, ptr %12, align 8, !tbaa !29
  %13 = tail call ptr @DSA_get_default_method() #7
  %14 = getelementptr inbounds nuw i8, ptr %3, i64 160
  store ptr %13, ptr %14, align 8, !tbaa !23
  %15 = getelementptr inbounds nuw i8, ptr %13, i64 64
  %16 = load i32, ptr %15, align 8, !tbaa !30
  %17 = and i32 %16, -1025
  %18 = getelementptr inbounds nuw i8, ptr %3, i64 120
  store i32 %17, ptr %18, align 8, !tbaa !21
  %.not = icmp eq ptr %0, null
  br i1 %.not, label %22, label %19

19:                                               ; preds = %10
  %20 = tail call i32 @ENGINE_init(ptr noundef nonnull %0) #7
  %.not37 = icmp eq i32 %20, 0
  br i1 %.not37, label %.sink.split, label %.thread

.thread:                                          ; preds = %19
  %21 = getelementptr inbounds nuw i8, ptr %3, i64 168
  store ptr %0, ptr %21, align 8, !tbaa !22
  br label %25

22:                                               ; preds = %10
  %23 = tail call ptr @ENGINE_get_default_DSA() #7
  %24 = getelementptr inbounds nuw i8, ptr %3, i64 168
  store ptr %23, ptr %24, align 8, !tbaa !22
  %.not38 = icmp eq ptr %23, null
  br i1 %.not38, label %._crit_edge, label %25

._crit_edge:                                      ; preds = %22
  %.pre = load ptr, ptr %14, align 8, !tbaa !23
  br label %29

25:                                               ; preds = %.thread, %22
  %26 = phi ptr [ %0, %.thread ], [ %23, %22 ]
  %27 = tail call ptr @ENGINE_get_DSA(ptr noundef nonnull %26) #7
  store ptr %27, ptr %14, align 8, !tbaa !23
  %28 = icmp eq ptr %27, null
  br i1 %28, label %.sink.split, label %29

29:                                               ; preds = %._crit_edge, %25
  %30 = phi ptr [ %.pre, %._crit_edge ], [ %27, %25 ]
  %31 = getelementptr inbounds nuw i8, ptr %30, i64 64
  %32 = load i32, ptr %31, align 8, !tbaa !30
  %33 = and i32 %32, -1025
  store i32 %33, ptr %18, align 8, !tbaa !21
  %34 = getelementptr inbounds nuw i8, ptr %3, i64 144
  %35 = tail call i32 @ossl_crypto_new_ex_data_ex(ptr noundef %1, i32 noundef 7, ptr noundef nonnull %3, ptr noundef nonnull %34) #7
  %.not39 = icmp eq i32 %35, 0
  br i1 %.not39, label %43, label %36

36:                                               ; preds = %29
  %37 = getelementptr inbounds nuw i8, ptr %3, i64 8
  tail call void @ossl_ffc_params_init(ptr noundef nonnull %37) #7
  %38 = load ptr, ptr %14, align 8, !tbaa !23
  %39 = getelementptr inbounds nuw i8, ptr %38, i64 48
  %40 = load ptr, ptr %39, align 8, !tbaa !26
  %.not40 = icmp eq ptr %40, null
  br i1 %.not40, label %44, label %41

41:                                               ; preds = %36
  %42 = tail call i32 %40(ptr noundef nonnull %3) #7
  %.not41 = icmp eq i32 %42, 0
  br i1 %.not41, label %.sink.split, label %44

.sink.split:                                      ; preds = %41, %25, %19
  %.sink43 = phi i32 [ 159, %19 ], [ 168, %25 ], [ 185, %41 ]
  %.sink = phi i32 [ 524326, %19 ], [ 524326, %25 ], [ 786693, %41 ]
  tail call void @ERR_new() #7
  tail call void @ERR_set_debug(ptr noundef nonnull @.str, i32 noundef %.sink43, ptr noundef nonnull @__func__.dsa_new_intern) #7
  tail call void (i32, i32, ptr, ...) @ERR_set_error(i32 noundef 10, i32 noundef %.sink, ptr noundef null) #7
  br label %43

43:                                               ; preds = %.sink.split, %29
  tail call void @DSA_free(ptr noundef nonnull %3)
  br label %44

44:                                               ; preds = %36, %41, %2, %43, %9
  %.0 = phi ptr [ null, %9 ], [ null, %43 ], [ null, %2 ], [ %3, %41 ], [ %3, %36 ]
  ret ptr %.0
}